target datalayout = "e-m:e-p270:32:32-p271:32:32-p272:64:64-i64:64-i128:128-f80:128-n8:16:32:64-S128"
target triple = "x86_64-pc-linux-gnu"

%struct.TypeName = type { i32, ptr, i32, i8, i8, ptr, i32, ptr, i32 }
%struct.String = type { i32, ptr }
%struct.List = type { i32, i32, i32, ptr, [0 x %union.ListCell] }
%union.ListCell = type { ptr }
%struct.ForEachState = type { ptr, i32 }

@.str.16 = private unnamed_addr constant [6 x i8] c"%TYPE\00", align 1
@.str.17 = private unnamed_addr constant [3 x i8] c"[]\00", align 1

; Function Attrs: inlinehint nounwind uwtable
define internal ptr @list_head(ptr noundef %0) #3 {
  %2 = alloca ptr, align 8
  store ptr %0, ptr %2, align 8
  %3 = load ptr, ptr %2, align 8
  %4 = icmp ne ptr %3, null
  br i1 %4, label %5, label %10

5:                                                ; preds = %1
  %6 = load ptr, ptr %2, align 8
  %7 = getelementptr inbounds nuw %struct.List, ptr %6, i32 0, i32 3
  %8 = load ptr, ptr %7, align 8
  %9 = getelementptr inbounds %union.ListCell, ptr %8, i64 0
  br label %11

10:                                               ; preds = %1
  br label %11

11:                                               ; preds = %10, %5
  %12 = phi ptr [ %9, %5 ], [ null, %10 ]
  ret ptr %12
}

; Function Attrs: nounwind uwtable
define internal void @appendTypeNameToBuffer(ptr noundef %0, ptr noundef %1) #0 {
  %3 = alloca ptr, align 8
  %4 = alloca ptr, align 8
  %5 = alloca ptr, align 8
  %6 = alloca %struct.ForEachState, align 8
  store ptr %0, ptr %3, align 8
  store ptr %1, ptr %4, align 8
  %7 = load ptr, ptr %3, align 8
  %8 = getelementptr inbounds nuw %struct.TypeName, ptr %7, i32 0, i32 1
  %9 = load ptr, ptr %8, align 8
  %10 = icmp ne ptr %9, null
  br i1 %10, label %11, label %64

11:                                               ; preds = %2
  call void @llvm.lifetime.start.p0(i64 8, ptr %5) #7
  call void @llvm.lifetime.start.p0(i64 16, ptr %6) #7
  %12 = getelementptr inbounds nuw %struct.ForEachState, ptr %6, i32 0, i32 0
  %13 = load ptr, ptr %3, align 8
  %14 = getelementptr inbounds nuw %struct.TypeName, ptr %13, i32 0, i32 1
  %15 = load ptr, ptr %14, align 8
  store ptr %15, ptr %12, align 8
  %16 = getelementptr inbounds nuw %struct.ForEachState, ptr %6, i32 0, i32 1
  store i32 0, ptr %16, align 8
  %17 = getelementptr i8, ptr %6, i64 12
  call void @llvm.memset.p0.i64(ptr align 4 %17, i8 0, i64 4, i1 false)
  br label %18

18:                                               ; preds = %59, %11
  %19 = getelementptr inbounds nuw %struct.ForEachState, ptr %6, i32 0, i32 0
  %20 = load ptr, ptr %19, align 8
  %21 = icmp ne ptr %20, null
  br i1 %21, label %22, label %39

22:                                               ; preds = %18
  %23 = getelementptr inbounds nuw %struct.ForEachState, ptr %6, i32 0, i32 1
  %24 = load i32, ptr %23, align 8
  %25 = getelementptr inbounds nuw %struct.ForEachState, ptr %6, i32 0, i32 0
  %26 = load ptr, ptr %25, align 8
  %27 = getelementptr inbounds nuw %struct.List, ptr %26, i32 0, i32 1
  %28 = load i32, ptr %27, align 4
  %29 = icmp slt i32 %24, %28
  br i1 %29, label %30, label %39

30:                                               ; preds = %22
  %31 = getelementptr inbounds nuw %struct.ForEachState, ptr %6, i32 0, i32 0
  %32 = load ptr, ptr %31, align 8
  %33 = getelementptr inbounds nuw %struct.List, ptr %32, i32 0, i32 3
  %34 = load ptr, ptr %33, align 8
  %35 = getelementptr inbounds nuw %struct.ForEachState, ptr %6, i32 0, i32 1
  %36 = load i32, ptr %35, align 8
  %37 = sext i32 %36 to i64
  %38 = getelementptr inbounds %union.ListCell, ptr %34, i64 %37
  store ptr %38, ptr %5, align 8
  br label %40

39:                                               ; preds = %22, %18
  store ptr null, ptr %5, align 8
  br label %40

40:                                               ; preds = %39, %30
  %41 = phi i32 [ 1, %30 ], [ 0, %39 ]
  %42 = icmp ne i32 %41, 0
  br i1 %42, label %44, label %43

43:                                               ; preds = %40
  call void @llvm.lifetime.end.p0(i64 16, ptr %6) #7
  br label %63

44:                                               ; preds = %40
  %45 = load ptr, ptr %5, align 8
  %46 = load ptr, ptr %3, align 8
  %47 = getelementptr inbounds nuw %struct.TypeName, ptr %46, i32 0, i32 1
  %48 = load ptr, ptr %47, align 8
  %49 = call ptr @list_head(ptr noundef %48)
  %50 = icmp ne ptr %45, %49
  br i1 %50, label %51, label %53

51:                                               ; preds = %44
  %52 = load ptr, ptr %4, align 8
  call void @appendStringInfoChar(ptr noundef %52, i8 noundef signext 46)
  br label %53

53:                                               ; preds = %51, %44
  %54 = load ptr, ptr %4, align 8
  %55 = load ptr, ptr %5, align 8
  %56 = load ptr, ptr %55, align 8
  %57 = getelementptr inbounds nuw %struct.String, ptr %56, i32 0, i32 1
  %58 = load ptr, ptr %57, align 8
  call void @appendStringInfoString(ptr noundef %54, ptr noundef %58)
  br label %59

59:                                               ; preds = %53
  %60 = getelementptr inbounds nuw %struct.ForEachState, ptr %6, i32 0, i32 1
  %61 = load i32, ptr %60, align 8
  %62 = add i32 %61, 1
  store i32 %62, ptr %60, align 8
  br label %18, !llvm.loop !8

63:                                               ; preds = %43
  call void @llvm.lifetime.end.p0(i64 8, ptr %5) #7
  br label %70

64:                                               ; preds = %2
  %65 = load ptr, ptr %4, align 8
  %66 = load ptr, ptr %3, align 8
  %67 = getelementptr inbounds nuw %struct.TypeName, ptr %66, i32 0, i32 2
  %68 = load i32, ptr %67, align 8
  %69 = call ptr @format_type_be(i32 noundef %68)
  call void @appendStringInfoString(ptr noundef %65, ptr noundef %69)
  br label %70

70:                                               ; preds = %64, %63
  %71 = load ptr, ptr %3, align 8
  %72 = getelementptr inbounds nuw %struct.TypeName, ptr %71, i32 0, i32 4
  %73 = load i8, ptr %72, align 1, !range !4, !noundef !5
  %74 = trunc i8 %73 to i1
  br i1 %74, label %75, label %77

75:                                               ; preds = %70
  %76 = load ptr, ptr %4, align 8
  call void @appendStringInfoString(ptr noundef %76, ptr noundef @.str.16)
  br label %77

77:                                               ; preds = %75, %70
  %78 = load ptr, ptr %3, align 8
  %79 = getelementptr inbounds nuw %struct.TypeName, ptr %78, i32 0, i32 7
  %80 = load ptr, ptr %79, align 8
  %81 = icmp ne ptr %80, null
  br i1 %81, label %82, label %84

82:                                               ; preds = %77
  %83 = load ptr, ptr %4, align 8
  call void @appendStringInfoString(ptr noundef %83, ptr noundef @.str.17)
  br label %84

84:                                               ; preds = %82, %77
  ret void
}