; Function Attrs: nounwind uwtable
define internal fastcc void @appendTypeNameToBuffer(ptr noundef readonly captures(none) %0, ptr noundef nonnull %1) unnamed_addr #0 {
  %3 = getelementptr inbounds nuw i8, ptr %0, i64 8
  %4 = load ptr, ptr %3, align 8
  %.not = icmp eq ptr %4, null
  br i1 %.not, label %23, label %.preheader

.preheader:                                       ; preds = %2
  %5 = getelementptr inbounds nuw i8, ptr %4, i64 4
  %6 = load i32, ptr %5, align 4
  %.not1924 = icmp sgt i32 %6, 0
  br i1 %.not1924, label %.lr.ph, label %.loopexit

.lr.ph:                                           ; preds = %.preheader
  %7 = getelementptr inbounds nuw i8, ptr %4, i64 16
  br label %8

8:                                                ; preds = %.lr.ph, %17
  %indvars.iv = phi i64 [ 0, %.lr.ph ], [ %indvars.iv.next, %17 ]
  %9 = load ptr, ptr %7, align 8
  %10 = getelementptr inbounds nuw %union.ListCell, ptr %9, i64 %indvars.iv
  %11 = load ptr, ptr %3, align 8
  %.not.i = icmp eq ptr %11, null
  br i1 %.not.i, label %list_head.exit, label %12

12:                                               ; preds = %8
  %13 = getelementptr inbounds nuw i8, ptr %11, i64 16
  %14 = load ptr, ptr %13, align 8
  br label %list_head.exit

list_head.exit:                                   ; preds = %8, %12
  %15 = phi ptr [ %14, %12 ], [ null, %8 ]
  %.not21 = icmp eq ptr %10, %15
  br i1 %.not21, label %17, label %16

16:                                               ; preds = %list_head.exit
  tail call void @appendStringInfoChar(ptr noundef nonnull %1, i8 noundef signext 46) #7
  br label %17

17:                                               ; preds = %16, %list_head.exit
  %18 = load ptr, ptr %10, align 8
  %19 = getelementptr inbounds nuw i8, ptr %18, i64 8
  %20 = load ptr, ptr %19, align 8
  tail call void @appendStringInfoString(ptr noundef nonnull %1, ptr noundef %20) #7
  %indvars.iv.next = add nuw nsw i64 %indvars.iv, 1
  %21 = load i32, ptr %5, align 4
  %22 = sext i32 %21 to i64
  %.not19 = icmp slt i64 %indvars.iv.next, %22
  br i1 %.not19, label %8, label %.loopexit, !llvm.loop !6

23:                                               ; preds = %2
  %24 = getelementptr inbounds nuw i8, ptr %0, i64 16
  %25 = load i32, ptr %24, align 8
  %26 = tail call ptr @format_type_be(i32 noundef %25) #7
  tail call void @appendStringInfoString(ptr noundef nonnull %1, ptr noundef %26) #7
  br label %.loopexit

.loopexit:                                        ; preds = %17, %.preheader, %23
  %27 = getelementptr inbounds nuw i8, ptr %0, i64 21
  %28 = load i8, ptr %27, align 1, !range !4, !noundef !5
  %29 = trunc nuw i8 %28 to i1
  br i1 %29, label %30, label %31

30:                                               ; preds = %.loopexit
  tail call void @appendStringInfoString(ptr noundef nonnull %1, ptr noundef nonnull @.str.16) #7
  br label %31

31:                                               ; preds = %30, %.loopexit
  %32 = getelementptr inbounds nuw i8, ptr %0, i64 40
  %33 = load ptr, ptr %32, align 8
  %.not20 = icmp eq ptr %33, null
  br i1 %.not20, label %35, label %34

34:                                               ; preds = %31
  tail call void @appendStringInfoString(ptr noundef nonnull %1, ptr noundef nonnull @.str.17) #7
  br label %35

35:                                               ; preds = %34, %31
  ret void
}